; ModuleID = 'source-C-CXX/30/122.c'
source_filename = "source-C-CXX/30/122.c"
target datalayout = "e-m:e-p270:32:32-p271:32:32-p272:64:64-i64:64-f80:128-n8:16:32:64-S128"
target triple = "x86_64-pc-linux-gnu"

%struct.student = type { [100 x i8], %struct.student* }

@.str = private unnamed_addr constant [3 x i8] c"%s\00", align 1

; Function Attrs: nounwind sspstrong uwtable
define dso_local i32 @main() local_unnamed_addr #0 {
  %1 = tail call noalias align 16 dereferenceable_or_null(112) i8* @malloc(i64 112) #7
  %2 = bitcast i8* %1 to %struct.student*
  %3 = getelementptr inbounds %struct.student, %struct.student* %2, i64 0, i32 0, i64 0
  %4 = tail call i32 (i8*, ...) bitcast (i32 (...)* @gets to i32 (i8*, ...)*)(i8* %3) #7
  %5 = getelementptr inbounds %struct.student, %struct.student* %2, i64 0, i32 1
  store %struct.student* null, %struct.student** %5, align 8, !tbaa !5
  %6 = load i8, i8* %3, align 16, !tbaa !10
  %7 = icmp eq i8 %6, 101
  br i1 %7, label %8, label %20

8:                                                ; preds = %0
  %9 = getelementptr inbounds %struct.student, %struct.student* %2, i64 0, i32 0, i64 1
  %10 = load i8, i8* %9, align 1, !tbaa !10
  %11 = icmp eq i8 %10, 110
  br i1 %11, label %12, label %20

12:                                               ; preds = %8
  %13 = getelementptr inbounds %struct.student, %struct.student* %2, i64 0, i32 0, i64 2
  %14 = load i8, i8* %13, align 2, !tbaa !10
  %15 = icmp eq i8 %14, 100
  br i1 %15, label %16, label %20

16:                                               ; preds = %12
  %17 = getelementptr inbounds %struct.student, %struct.student* %2, i64 0, i32 0, i64 3
  %18 = load i8, i8* %17, align 1, !tbaa !10
  %19 = icmp eq i8 %18, 0
  br i1 %19, label %21, label %20

20:                                               ; preds = %0, %8, %12, %16
  br label %22

21:                                               ; preds = %16
  tail call void @free(i8* nonnull %1) #7
  br label %58

22:                                               ; preds = %20, %43
  %23 = phi %struct.student* [ %25, %43 ], [ %2, %20 ]
  %24 = tail call noalias align 16 dereferenceable_or_null(112) i8* @malloc(i64 112) #7
  %25 = bitcast i8* %24 to %struct.student*
  %26 = getelementptr inbounds %struct.student, %struct.student* %25, i64 0, i32 0, i64 0
  %27 = tail call i32 (i8*, ...) bitcast (i32 (...)* @gets to i32 (i8*, ...)*)(i8* %26) #7
  %28 = getelementptr inbounds %struct.student, %struct.student* %25, i64 0, i32 1
  %29 = load i8, i8* %26, align 16, !tbaa !10
  %30 = icmp eq i8 %29, 101
  br i1 %30, label %31, label %43

31:                                               ; preds = %22
  %32 = getelementptr inbounds %struct.student, %struct.student* %25, i64 0, i32 0, i64 1
  %33 = load i8, i8* %32, align 1, !tbaa !10
  %34 = icmp eq i8 %33, 110
  br i1 %34, label %35, label %43

35:                                               ; preds = %31
  %36 = getelementptr inbounds %struct.student, %struct.student* %25, i64 0, i32 0, i64 2
  %37 = load i8, i8* %36, align 2, !tbaa !10
  %38 = icmp eq i8 %37, 100
  br i1 %38, label %39, label %43

39:                                               ; preds = %35
  %40 = getelementptr inbounds %struct.student, %struct.student* %25, i64 0, i32 0, i64 3
  %41 = load i8, i8* %40, align 1, !tbaa !10
  %42 = icmp eq i8 %41, 0
  br i1 %42, label %44, label %43

43:                                               ; preds = %22, %31, %35, %39
  store %struct.student* %23, %struct.student** %28, align 8, !tbaa !5
  br label %22

44:                                               ; preds = %39
  tail call void @free(i8* nonnull %24) #7
  %45 = getelementptr inbounds %struct.student, %struct.student* %23, i64 0, i32 0, i64 0
  %46 = tail call i32 (i8*, ...) @printf(i8* nonnull dereferenceable(1) getelementptr inbounds ([3 x i8], [3 x i8]* @.str, i64 0, i64 0), i8* nonnull %45)
  %47 = getelementptr inbounds %struct.student, %struct.student* %23, i64 0, i32 1
  %48 = load %struct.student*, %struct.student** %47, align 8, !tbaa !5
  %49 = icmp eq %struct.student* %48, null
  br i1 %49, label %58, label %50

50:                                               ; preds = %44, %50
  %51 = phi %struct.student* [ %56, %50 ], [ %48, %44 ]
  %52 = tail call i32 @putchar(i32 10)
  %53 = getelementptr inbounds %struct.student, %struct.student* %51, i64 0, i32 0, i64 0
  %54 = tail call i32 (i8*, ...) @printf(i8* nonnull dereferenceable(1) getelementptr inbounds ([3 x i8], [3 x i8]* @.str, i64 0, i64 0), i8* nonnull %53)
  %55 = getelementptr inbounds %struct.student, %struct.student* %51, i64 0, i32 1
  %56 = load %struct.student*, %struct.student** %55, align 8, !tbaa !5
  %57 = icmp eq %struct.student* %56, null
  br i1 %57, label %58, label %50

58:                                               ; preds = %50, %44, %21
  ret i32 0
}

; Function Attrs: inaccessiblememonly mustprogress nofree nounwind willreturn
declare noalias noundef align 16 i8* @malloc(i64 noundef) local_unnamed_addr #1

declare i32 @gets(...) local_unnamed_addr #2

; Function Attrs: mustprogress nofree norecurse nosync nounwind readonly sspstrong uwtable willreturn
define dso_local i32 @isequal(i8* nocapture readonly %0) local_unnamed_addr #3 {
  %2 = load i8, i8* %0, align 1, !tbaa !10
  %3 = icmp eq i8 %2, 101
  br i1 %3, label %4, label %16

4:                                                ; preds = %1
  %5 = getelementptr inbounds i8, i8* %0, i64 1
  %6 = load i8, i8* %5, align 1, !tbaa !10
  %7 = icmp eq i8 %6, 110
  br i1 %7, label %8, label %16

8:                                                ; preds = %4
  %9 = getelementptr inbounds i8, i8* %0, i64 2
  %10 = load i8, i8* %9, align 1, !tbaa !10
  %11 = icmp eq i8 %10, 100
  br i1 %11, label %12, label %16

12:                                               ; preds = %8
  %13 = getelementptr inbounds i8, i8* %0, i64 3
  %14 = load i8, i8* %13, align 1, !tbaa !10
  %15 = icmp eq i8 %14, 0
  br i1 %15, label %17, label %16

16:                                               ; preds = %12, %8, %4, %1
  br label %17

17:                                               ; preds = %12, %16
  %18 = phi i32 [ 0, %16 ], [ 1, %12 ]
  ret i32 %18
}

; Function Attrs: inaccessiblemem_or_argmemonly mustprogress nounwind willreturn
declare void @free(i8* nocapture noundef) local_unnamed_addr #4

; Function Attrs: nofree nounwind
declare noundef i32 @printf(i8* nocapture noundef readonly, ...) local_unnamed_addr #5

; Function Attrs: nofree nounwind
declare noundef i32 @putchar(i32 noundef) local_unnamed_addr #6


!llvm.module.flags = !{!0, !1, !2, !3}
!llvm.ident = !{!4}

!0 = !{i32 1, !"wchar_size", i32 4}
!1 = !{i32 7, !"PIC Level", i32 2}
!2 = !{i32 7, !"PIE Level", i32 2}
!3 = !{i32 7, !"uwtable", i32 1}
!4 = !{!"clang version 13.0.0"}
!5 = !{!6, !9, i64 104}
!6 = !{!"student", !7, i64 0, !9, i64 104}
!7 = !{!"omnipotent char", !8, i64 0}
!8 = !{!"Simple C/C++ TBAA"}
!9 = !{!"any pointer", !7, i64 0}
!10 = !{!7, !7, i64 0}
